target datalayout = "e-m:e-p270:32:32-p271:32:32-p272:64:64-i64:64-i128:128-f80:128-n8:16:32:64-S128"
target triple = "x86_64-pc-linux-gnu"

%struct._object = type { %union.anon, ptr }
%union.anon = type { i64 }
%struct.PyVarObject = type { %struct._object, i64 }
%struct.anon = type { i32, i32 }
%struct.dequeobject = type { %struct.PyVarObject, ptr, ptr, i64, i64, i64, i64, i64, [16 x ptr], ptr }
%struct.BLOCK = type { ptr, [64 x ptr], ptr }

@PyExc_ValueError = external global ptr, align 8
@.str.24 = private unnamed_addr constant [6 x i8] c"index\00", align 1
@PyExc_RuntimeError = external global ptr, align 8
@.str.39 = private unnamed_addr constant [31 x i8] c"deque mutated during iteration\00", align 1
@.str.40 = private unnamed_addr constant [31 x i8] c"deque.index(x): x not in deque\00", align 1

; Function Attrs: alwaysinline nounwind uwtable
define internal i32 @_Py_IsImmortal(ptr noundef %0) #4 {
  %2 = alloca ptr, align 8
  store ptr %0, ptr %2, align 8, !tbaa !4
  %3 = load ptr, ptr %2, align 8, !tbaa !4
  %4 = getelementptr inbounds nuw %struct._object, ptr %3, i32 0, i32 0
  %5 = getelementptr inbounds nuw %struct.anon, ptr %4, i32 0, i32 0
  %6 = load i32, ptr %5, align 8, !tbaa !39
  %7 = icmp slt i32 %6, 0
  %8 = zext i1 %7 to i32
  ret i32 %8
}

; Function Attrs: alwaysinline nounwind uwtable
define internal void @Py_INCREF(ptr noundef %0) #4 {
  %2 = alloca ptr, align 8
  %3 = alloca i32, align 4
  %4 = alloca i32, align 4
  store ptr %0, ptr %2, align 8, !tbaa !4
  call void @llvm.lifetime.start.p0(i64 4, ptr %3) #7
  %5 = load ptr, ptr %2, align 8, !tbaa !4
  %6 = getelementptr inbounds nuw %struct._object, ptr %5, i32 0, i32 0
  %7 = getelementptr inbounds nuw %struct.anon, ptr %6, i32 0, i32 0
  %8 = load i32, ptr %7, align 8, !tbaa !39
  store i32 %8, ptr %3, align 4, !tbaa !13
  %9 = load i32, ptr %3, align 4, !tbaa !13
  %10 = icmp slt i32 %9, 0
  br i1 %10, label %11, label %12

11:                                               ; preds = %1
  store i32 1, ptr %4, align 4
  br label %18

12:                                               ; preds = %1
  %13 = load i32, ptr %3, align 4, !tbaa !13
  %14 = add i32 %13, 1
  %15 = load ptr, ptr %2, align 8, !tbaa !4
  %16 = getelementptr inbounds nuw %struct._object, ptr %15, i32 0, i32 0
  %17 = getelementptr inbounds nuw %struct.anon, ptr %16, i32 0, i32 0
  store i32 %14, ptr %17, align 8, !tbaa !39
  store i32 0, ptr %4, align 4
  br label %18

18:                                               ; preds = %12, %11
  call void @llvm.lifetime.end.p0(i64 4, ptr %3) #7
  %19 = load i32, ptr %4, align 4
  switch i32 %19, label %21 [
    i32 0, label %20
    i32 1, label %20
  ]

20:                                               ; preds = %18, %18
  ret void

21:                                               ; preds = %18
  unreachable
}

; Function Attrs: alwaysinline nounwind uwtable
define internal void @Py_DECREF(ptr noundef %0) #4 {
  %2 = alloca ptr, align 8
  store ptr %0, ptr %2, align 8, !tbaa !4
  %3 = load ptr, ptr %2, align 8, !tbaa !4
  %4 = call i32 @_Py_IsImmortal(ptr noundef %3)
  %5 = icmp ne i32 %4, 0
  br i1 %5, label %6, label %7

6:                                                ; preds = %1
  br label %16

7:                                                ; preds = %1
  %8 = load ptr, ptr %2, align 8, !tbaa !4
  %9 = getelementptr inbounds nuw %struct._object, ptr %8, i32 0, i32 0
  %10 = getelementptr inbounds nuw %struct.anon, ptr %9, i32 0, i32 0
  %11 = load i32, ptr %10, align 8, !tbaa !39
  %12 = add i32 %11, -1
  store i32 %12, ptr %10, align 8, !tbaa !39
  %13 = icmp eq i32 %12, 0
  br i1 %13, label %14, label %16

14:                                               ; preds = %7
  %15 = load ptr, ptr %2, align 8, !tbaa !4
  call void @_Py_Dealloc(ptr noundef %15)
  br label %16

16:                                               ; preds = %6, %14, %7
  ret void
}

; Function Attrs: inlinehint nounwind uwtable
define internal ptr @_Py_NewRef(ptr noundef %0) #3 {
  %2 = alloca ptr, align 8
  store ptr %0, ptr %2, align 8, !tbaa !4
  %3 = load ptr, ptr %2, align 8, !tbaa !4
  call void @Py_INCREF(ptr noundef %3)
  %4 = load ptr, ptr %2, align 8, !tbaa !4
  ret ptr %4
}

; Function Attrs: nounwind uwtable
define internal ptr @deque_index_impl(ptr noundef %0, ptr noundef %1, i64 noundef %2, i64 noundef %3) #0 {
  %5 = alloca ptr, align 8
  %6 = alloca ptr, align 8
  %7 = alloca ptr, align 8
  %8 = alloca i64, align 8
  %9 = alloca i64, align 8
  %10 = alloca i64, align 8
  %11 = alloca i64, align 8
  %12 = alloca ptr, align 8
  %13 = alloca ptr, align 8
  %14 = alloca i64, align 8
  %15 = alloca i64, align 8
  %16 = alloca i32, align 4
  %17 = alloca i32, align 4
  store ptr %0, ptr %6, align 8, !tbaa !43
  store ptr %1, ptr %7, align 8, !tbaa !4
  store i64 %2, ptr %8, align 8, !tbaa !24
  store i64 %3, ptr %9, align 8, !tbaa !24
  call void @llvm.lifetime.start.p0(i64 8, ptr %10) #7
  call void @llvm.lifetime.start.p0(i64 8, ptr %11) #7
  call void @llvm.lifetime.start.p0(i64 8, ptr %12) #7
  call void @llvm.lifetime.start.p0(i64 8, ptr %13) #7
  %18 = load ptr, ptr %6, align 8, !tbaa !43
  %19 = getelementptr inbounds nuw %struct.dequeobject, ptr %18, i32 0, i32 1
  %20 = load ptr, ptr %19, align 8, !tbaa !48
  store ptr %20, ptr %13, align 8, !tbaa !51
  call void @llvm.lifetime.start.p0(i64 8, ptr %14) #7
  %21 = load ptr, ptr %6, align 8, !tbaa !43
  %22 = getelementptr inbounds nuw %struct.dequeobject, ptr %21, i32 0, i32 3
  %23 = load i64, ptr %22, align 8, !tbaa !56
  store i64 %23, ptr %14, align 8, !tbaa !24
  call void @llvm.lifetime.start.p0(i64 8, ptr %15) #7
  %24 = load ptr, ptr %6, align 8, !tbaa !43
  %25 = getelementptr inbounds nuw %struct.dequeobject, ptr %24, i32 0, i32 5
  %26 = load i64, ptr %25, align 8, !tbaa !63
  store i64 %26, ptr %15, align 8, !tbaa !24
  call void @llvm.lifetime.start.p0(i64 4, ptr %16) #7
  %27 = load i64, ptr %8, align 8, !tbaa !24
  %28 = icmp slt i64 %27, 0
  br i1 %28, label %29, label %38

29:                                               ; preds = %4
  %30 = load ptr, ptr %6, align 8, !tbaa !43
  %31 = call i64 @Py_SIZE(ptr noundef %30)
  %32 = load i64, ptr %8, align 8, !tbaa !24
  %33 = add i64 %32, %31
  store i64 %33, ptr %8, align 8, !tbaa !24
  %34 = load i64, ptr %8, align 8, !tbaa !24
  %35 = icmp slt i64 %34, 0
  br i1 %35, label %36, label %37

36:                                               ; preds = %29
  store i64 0, ptr %8, align 8, !tbaa !24
  br label %37

37:                                               ; preds = %36, %29
  br label %38

38:                                               ; preds = %37, %4
  %39 = load i64, ptr %9, align 8, !tbaa !24
  %40 = icmp slt i64 %39, 0
  br i1 %40, label %41, label %50

41:                                               ; preds = %38
  %42 = load ptr, ptr %6, align 8, !tbaa !43
  %43 = call i64 @Py_SIZE(ptr noundef %42)
  %44 = load i64, ptr %9, align 8, !tbaa !24
  %45 = add i64 %44, %43
  store i64 %45, ptr %9, align 8, !tbaa !24
  %46 = load i64, ptr %9, align 8, !tbaa !24
  %47 = icmp slt i64 %46, 0
  br i1 %47, label %48, label %49

48:                                               ; preds = %41
  store i64 0, ptr %9, align 8, !tbaa !24
  br label %49

49:                                               ; preds = %48, %41
  br label %50

50:                                               ; preds = %49, %38
  %51 = load i64, ptr %9, align 8, !tbaa !24
  %52 = load ptr, ptr %6, align 8, !tbaa !43
  %53 = call i64 @Py_SIZE(ptr noundef %52)
  %54 = icmp sgt i64 %51, %53
  br i1 %54, label %55, label %58

55:                                               ; preds = %50
  %56 = load ptr, ptr %6, align 8, !tbaa !43
  %57 = call i64 @Py_SIZE(ptr noundef %56)
  store i64 %57, ptr %9, align 8, !tbaa !24
  br label %58

58:                                               ; preds = %55, %50
  %59 = load i64, ptr %8, align 8, !tbaa !24
  %60 = load i64, ptr %9, align 8, !tbaa !24
  %61 = icmp sgt i64 %59, %60
  br i1 %61, label %62, label %64

62:                                               ; preds = %58
  %63 = load i64, ptr %9, align 8, !tbaa !24
  store i64 %63, ptr %8, align 8, !tbaa !24
  br label %64

64:                                               ; preds = %62, %58
  store i64 0, ptr %10, align 8, !tbaa !24
  br label %65

65:                                               ; preds = %74, %64
  %66 = load i64, ptr %10, align 8, !tbaa !24
  %67 = load i64, ptr %8, align 8, !tbaa !24
  %68 = sub i64 %67, 64
  %69 = icmp slt i64 %66, %68
  br i1 %69, label %70, label %77

70:                                               ; preds = %65
  %71 = load ptr, ptr %13, align 8, !tbaa !51
  %72 = getelementptr inbounds nuw %struct.BLOCK, ptr %71, i32 0, i32 2
  %73 = load ptr, ptr %72, align 8, !tbaa !58
  store ptr %73, ptr %13, align 8, !tbaa !51
  br label %74

74:                                               ; preds = %70
  %75 = load i64, ptr %10, align 8, !tbaa !24
  %76 = add i64 %75, 64
  store i64 %76, ptr %10, align 8, !tbaa !24
  br label %65, !llvm.loop !84

77:                                               ; preds = %65
  br label %78

78:                                               ; preds = %92, %77
  %79 = load i64, ptr %10, align 8, !tbaa !24
  %80 = load i64, ptr %8, align 8, !tbaa !24
  %81 = icmp slt i64 %79, %80
  br i1 %81, label %82, label %95

82:                                               ; preds = %78
  %83 = load i64, ptr %14, align 8, !tbaa !24
  %84 = add i64 %83, 1
  store i64 %84, ptr %14, align 8, !tbaa !24
  %85 = load i64, ptr %14, align 8, !tbaa !24
  %86 = icmp eq i64 %85, 64
  br i1 %86, label %87, label %91

87:                                               ; preds = %82
  %88 = load ptr, ptr %13, align 8, !tbaa !51
  %89 = getelementptr inbounds nuw %struct.BLOCK, ptr %88, i32 0, i32 2
  %90 = load ptr, ptr %89, align 8, !tbaa !58
  store ptr %90, ptr %13, align 8, !tbaa !51
  store i64 0, ptr %14, align 8, !tbaa !24
  br label %91

91:                                               ; preds = %87, %82
  br label %92

92:                                               ; preds = %91
  %93 = load i64, ptr %10, align 8, !tbaa !24
  %94 = add i64 %93, 1
  store i64 %94, ptr %10, align 8, !tbaa !24
  br label %78, !llvm.loop !85

95:                                               ; preds = %78
  %96 = load i64, ptr %9, align 8, !tbaa !24
  %97 = load i64, ptr %10, align 8, !tbaa !24
  %98 = sub i64 %96, %97
  store i64 %98, ptr %11, align 8, !tbaa !24
  br label %99

99:                                               ; preds = %143, %95
  %100 = load i64, ptr %11, align 8, !tbaa !24
  %101 = add i64 %100, -1
  store i64 %101, ptr %11, align 8, !tbaa !24
  %102 = icmp sge i64 %101, 0
  br i1 %102, label %103, label %144

103:                                              ; preds = %99
  %104 = load ptr, ptr %13, align 8, !tbaa !51
  %105 = getelementptr inbounds nuw %struct.BLOCK, ptr %104, i32 0, i32 1
  %106 = load i64, ptr %14, align 8, !tbaa !24
  %107 = getelementptr [64 x ptr], ptr %105, i64 0, i64 %106
  %108 = load ptr, ptr %107, align 8, !tbaa !4
  %109 = call ptr @_Py_NewRef(ptr noundef %108)
  store ptr %109, ptr %12, align 8, !tbaa !4
  %110 = load ptr, ptr %12, align 8, !tbaa !4
  %111 = load ptr, ptr %7, align 8, !tbaa !4
  %112 = call i32 @PyObject_RichCompareBool(ptr noundef %110, ptr noundef %111, i32 noundef 2)
  store i32 %112, ptr %16, align 4, !tbaa !13
  %113 = load ptr, ptr %12, align 8, !tbaa !4
  call void @Py_DECREF(ptr noundef %113)
  %114 = load i32, ptr %16, align 4, !tbaa !13
  %115 = icmp sgt i32 %114, 0
  br i1 %115, label %116, label %122

116:                                              ; preds = %103
  %117 = load i64, ptr %9, align 8, !tbaa !24
  %118 = load i64, ptr %11, align 8, !tbaa !24
  %119 = sub i64 %117, %118
  %120 = sub i64 %119, 1
  %121 = call ptr @PyLong_FromSsize_t(i64 noundef %120)
  store ptr %121, ptr %5, align 8
  store i32 1, ptr %17, align 4
  br label %146

122:                                              ; preds = %103
  %123 = load i32, ptr %16, align 4, !tbaa !13
  %124 = icmp slt i32 %123, 0
  br i1 %124, label %125, label %126

125:                                              ; preds = %122
  store ptr null, ptr %5, align 8
  store i32 1, ptr %17, align 4
  br label %146

126:                                              ; preds = %122
  %127 = load i64, ptr %15, align 8, !tbaa !24
  %128 = load ptr, ptr %6, align 8, !tbaa !43
  %129 = getelementptr inbounds nuw %struct.dequeobject, ptr %128, i32 0, i32 5
  %130 = load i64, ptr %129, align 8, !tbaa !63
  %131 = icmp ne i64 %127, %130
  br i1 %131, label %132, label %134

132:                                              ; preds = %126
  %133 = load ptr, ptr @PyExc_RuntimeError, align 8, !tbaa !4
  call void @PyErr_SetString(ptr noundef %133, ptr noundef @.str.39)
  store ptr null, ptr %5, align 8
  store i32 1, ptr %17, align 4
  br label %146

134:                                              ; preds = %126
  %135 = load i64, ptr %14, align 8, !tbaa !24
  %136 = add i64 %135, 1
  store i64 %136, ptr %14, align 8, !tbaa !24
  %137 = load i64, ptr %14, align 8, !tbaa !24
  %138 = icmp eq i64 %137, 64
  br i1 %138, label %139, label %143

139:                                              ; preds = %134
  %140 = load ptr, ptr %13, align 8, !tbaa !51
  %141 = getelementptr inbounds nuw %struct.BLOCK, ptr %140, i32 0, i32 2
  %142 = load ptr, ptr %141, align 8, !tbaa !58
  store ptr %142, ptr %13, align 8, !tbaa !51
  store i64 0, ptr %14, align 8, !tbaa !24
  br label %143

143:                                              ; preds = %139, %134
  br label %99, !llvm.loop !86

144:                                              ; preds = %99
  %145 = load ptr, ptr @PyExc_ValueError, align 8, !tbaa !4
  call void @PyErr_SetString(ptr noundef %145, ptr noundef @.str.40)
  store ptr null, ptr %5, align 8
  store i32 1, ptr %17, align 4
  br label %146

146:                                              ; preds = %144, %132, %125, %116
  call void @llvm.lifetime.end.p0(i64 4, ptr %16) #7
  call void @llvm.lifetime.end.p0(i64 8, ptr %15) #7
  call void @llvm.lifetime.end.p0(i64 8, ptr %14) #7
  call void @llvm.lifetime.end.p0(i64 8, ptr %13) #7
  call void @llvm.lifetime.end.p0(i64 8, ptr %12) #7
  call void @llvm.lifetime.end.p0(i64 8, ptr %11) #7
  call void @llvm.lifetime.end.p0(i64 8, ptr %10) #7
  %147 = load ptr, ptr %5, align 8
  ret ptr %147
}

; Function Attrs: inlinehint nounwind uwtable
define internal i64 @Py_SIZE(ptr noundef %0) #3 {
  %2 = alloca ptr, align 8
  store ptr %0, ptr %2, align 8, !tbaa !4
  %3 = load ptr, ptr %2, align 8, !tbaa !4
  %4 = getelementptr inbounds nuw %struct.PyVarObject, ptr %3, i32 0, i32 1
  %5 = load i64, ptr %4, align 8, !tbaa !72
  ret i64 %5
}

; Function Attrs: nounwind uwtable
define internal ptr @deque_index(ptr noundef %0, ptr noundef %1, i64 noundef %2) #0 {
  %4 = alloca ptr, align 8
  %5 = alloca ptr, align 8
  %6 = alloca i64, align 8
  %7 = alloca ptr, align 8
  %8 = alloca ptr, align 8
  %9 = alloca i64, align 8
  %10 = alloca i64, align 8
  store ptr %0, ptr %4, align 8, !tbaa !4
  store ptr %1, ptr %5, align 8, !tbaa !22
  store i64 %2, ptr %6, align 8, !tbaa !24
  call void @llvm.lifetime.start.p0(i64 8, ptr %7) #7
  store ptr null, ptr %7, align 8, !tbaa !4
  call void @llvm.lifetime.start.p0(i64 8, ptr %8) #7
  call void @llvm.lifetime.start.p0(i64 8, ptr %9) #7
  store i64 0, ptr %9, align 8, !tbaa !24
  call void @llvm.lifetime.start.p0(i64 8, ptr %10) #7
  %11 = load ptr, ptr %4, align 8, !tbaa !4
  %12 = call i64 @Py_SIZE(ptr noundef %11)
  store i64 %12, ptr %10, align 8, !tbaa !24
  %13 = load i64, ptr %6, align 8, !tbaa !24
  %14 = icmp sle i64 1, %13
  br i1 %14, label %15, label %18

15:                                               ; preds = %3
  %16 = load i64, ptr %6, align 8, !tbaa !24
  %17 = icmp sle i64 %16, 3
  br i1 %17, label %23, label %18

18:                                               ; preds = %15, %3
  %19 = load i64, ptr %6, align 8, !tbaa !24
  %20 = call i32 @_PyArg_CheckPositional(ptr noundef @.str.24, i64 noundef %19, i64 noundef 1, i64 noundef 3)
  %21 = icmp ne i32 %20, 0
  br i1 %21, label %23, label %22

22:                                               ; preds = %18
  br label %55

23:                                               ; preds = %18, %15
  %24 = load ptr, ptr %5, align 8, !tbaa !22
  %25 = getelementptr ptr, ptr %24, i64 0
  %26 = load ptr, ptr %25, align 8, !tbaa !4
  store ptr %26, ptr %8, align 8, !tbaa !4
  %27 = load i64, ptr %6, align 8, !tbaa !24
  %28 = icmp slt i64 %27, 2
  br i1 %28, label %29, label %30

29:                                               ; preds = %23
  br label %49

30:                                               ; preds = %23
  %31 = load ptr, ptr %5, align 8, !tbaa !22
  %32 = getelementptr ptr, ptr %31, i64 1
  %33 = load ptr, ptr %32, align 8, !tbaa !4
  %34 = call i32 @_PyEval_SliceIndexNotNone(ptr noundef %33, ptr noundef %9)
  %35 = icmp ne i32 %34, 0
  br i1 %35, label %37, label %36

36:                                               ; preds = %30
  br label %55

37:                                               ; preds = %30
  %38 = load i64, ptr %6, align 8, !tbaa !24
  %39 = icmp slt i64 %38, 3
  br i1 %39, label %40, label %41

40:                                               ; preds = %37
  br label %49

41:                                               ; preds = %37
  %42 = load ptr, ptr %5, align 8, !tbaa !22
  %43 = getelementptr ptr, ptr %42, i64 2
  %44 = load ptr, ptr %43, align 8, !tbaa !4
  %45 = call i32 @_PyEval_SliceIndexNotNone(ptr noundef %44, ptr noundef %10)
  %46 = icmp ne i32 %45, 0
  br i1 %46, label %48, label %47

47:                                               ; preds = %41
  br label %55

48:                                               ; preds = %41
  br label %49

49:                                               ; preds = %48, %40, %29
  %50 = load ptr, ptr %4, align 8, !tbaa !4
  %51 = load ptr, ptr %8, align 8, !tbaa !4
  %52 = load i64, ptr %9, align 8, !tbaa !24
  %53 = load i64, ptr %10, align 8, !tbaa !24
  %54 = call ptr @deque_index_impl(ptr noundef %50, ptr noundef %51, i64 noundef %52, i64 noundef %53)
  store ptr %54, ptr %7, align 8, !tbaa !4
  br label %55

55:                                               ; preds = %49, %47, %36, %22
  %56 = load ptr, ptr %7, align 8, !tbaa !4
  call void @llvm.lifetime.end.p0(i64 8, ptr %10) #7
  call void @llvm.lifetime.end.p0(i64 8, ptr %9) #7
  call void @llvm.lifetime.end.p0(i64 8, ptr %8) #7
  call void @llvm.lifetime.end.p0(i64 8, ptr %7) #7
  ret ptr %56
}