; Function Attrs: nounwind uwtable
define internal ptr @deque_index(ptr noundef readonly captures(none) %0, ptr noundef readonly captures(none) %1, i64 noundef %2) #0 {
  %4 = alloca i64, align 8
  %5 = alloca i64, align 8
  call void @llvm.lifetime.start.p0(i64 8, ptr nonnull %4) #9
  store i64 0, ptr %4, align 8, !tbaa !73
  call void @llvm.lifetime.start.p0(i64 8, ptr nonnull %5) #9
  %6 = getelementptr i8, ptr %0, i64 16
  %.val = load i64, ptr %6, align 8, !tbaa !52
  store i64 %.val, ptr %5, align 8, !tbaa !73
  %7 = add i64 %2, -1
  %or.cond = icmp ult i64 %7, 3
  br i1 %or.cond, label %10, label %8

8:                                                ; preds = %3
  %9 = tail call i32 @_PyArg_CheckPositional(ptr noundef nonnull @.str.24, i64 noundef %2, i64 noundef 1, i64 noundef 3) #9
  %.not = icmp eq i32 %9, 0
  br i1 %.not, label %deque_index_impl.exit, label %10

10:                                               ; preds = %3, %8
  %11 = load ptr, ptr %1, align 8, !tbaa !21
  %12 = icmp slt i64 %2, 2
  br i1 %12, label %._crit_edge93.i, label %13

13:                                               ; preds = %10
  %14 = getelementptr i8, ptr %1, i64 8
  %15 = load ptr, ptr %14, align 8, !tbaa !21
  %16 = call i32 @_PyEval_SliceIndexNotNone(ptr noundef %15, ptr noundef nonnull %4) #9
  %.not13 = icmp eq i32 %16, 0
  br i1 %.not13, label %deque_index_impl.exit, label %17

17:                                               ; preds = %13
  %18 = icmp eq i64 %2, 2
  br i1 %18, label %._crit_edge93.i, label %19

19:                                               ; preds = %17
  %20 = getelementptr i8, ptr %1, i64 16
  %21 = load ptr, ptr %20, align 8, !tbaa !21
  %22 = call i32 @_PyEval_SliceIndexNotNone(ptr noundef %21, ptr noundef nonnull %5) #9
  %.not14 = icmp eq i32 %22, 0
  br i1 %.not14, label %deque_index_impl.exit, label %._crit_edge93.i

._crit_edge93.i:                                  ; preds = %19, %17, %10
  %23 = load i64, ptr %4, align 8, !tbaa !73
  %24 = load i64, ptr %5, align 8, !tbaa !73
  %25 = getelementptr inbounds nuw i8, ptr %0, i64 24
  %26 = load ptr, ptr %25, align 8, !tbaa !39
  %27 = getelementptr inbounds nuw i8, ptr %0, i64 40
  %28 = load i64, ptr %27, align 8, !tbaa !46
  %29 = getelementptr inbounds nuw i8, ptr %0, i64 56
  %30 = load i64, ptr %29, align 8, !tbaa !53
  %31 = icmp slt i64 %23, 0
  %.val66.i.pre = load i64, ptr %6, align 8, !tbaa !52
  %32 = add i64 %.val66.i.pre, %23
  %spec.store.select.i = call i64 @llvm.smax.i64(i64 %32, i64 0)
  %.045.i = select i1 %31, i64 %spec.store.select.i, i64 %23
  %33 = icmp slt i64 %24, 0
  %34 = add i64 %.val66.i.pre, %24
  %spec.store.select1.i = call i64 @llvm.smax.i64(i64 %34, i64 0)
  %.052.i = select i1 %33, i64 %spec.store.select1.i, i64 %24
  %spec.select68.i = call i64 @llvm.smin.i64(i64 %.052.i, i64 %.val66.i.pre)
  %spec.select.i = call i64 @llvm.smin.i64(i64 %.045.i, i64 %spec.select68.i)
  %35 = add i64 %spec.select.i, -64
  %36 = icmp sgt i64 %35, 0
  br i1 %36, label %.lr.ph.i, label %.preheader.i

.preheader.i:                                     ; preds = %.lr.ph.i, %._crit_edge93.i
  %.055.lcssa.i = phi i64 [ 0, %._crit_edge93.i ], [ %40, %.lr.ph.i ]
  %.048.lcssa.i = phi ptr [ %26, %._crit_edge93.i ], [ %39, %.lr.ph.i ]
  %37 = icmp slt i64 %.055.lcssa.i, %spec.select.i
  br i1 %37, label %.lr.ph78.i, label %._crit_edge.i

.lr.ph.i:                                         ; preds = %._crit_edge93.i, %.lr.ph.i
  %.04873.i = phi ptr [ %39, %.lr.ph.i ], [ %26, %._crit_edge93.i ]
  %.05572.i = phi i64 [ %40, %.lr.ph.i ], [ 0, %._crit_edge93.i ]
  %38 = getelementptr inbounds nuw i8, ptr %.04873.i, i64 520
  %39 = load ptr, ptr %38, align 8, !tbaa !54
  %40 = add nuw nsw i64 %.05572.i, 64
  %41 = icmp slt i64 %40, %35
  br i1 %41, label %.lr.ph.i, label %.preheader.i, !llvm.loop !81

.lr.ph78.i:                                       ; preds = %.preheader.i, %47
  %.04677.i = phi i64 [ %.147.i, %47 ], [ %28, %.preheader.i ]
  %.14976.i = phi ptr [ %.250.i, %47 ], [ %.048.lcssa.i, %.preheader.i ]
  %.15675.i = phi i64 [ %48, %47 ], [ %.055.lcssa.i, %.preheader.i ]
  %42 = add i64 %.04677.i, 1
  %43 = icmp eq i64 %42, 64
  br i1 %43, label %44, label %47

44:                                               ; preds = %.lr.ph78.i
  %45 = getelementptr inbounds nuw i8, ptr %.14976.i, i64 520
  %46 = load ptr, ptr %45, align 8, !tbaa !54
  br label %47

47:                                               ; preds = %44, %.lr.ph78.i
  %.250.i = phi ptr [ %46, %44 ], [ %.14976.i, %.lr.ph78.i ]
  %.147.i = phi i64 [ 0, %44 ], [ %42, %.lr.ph78.i ]
  %48 = add nuw nsw i64 %.15675.i, 1
  %exitcond.not.i = icmp eq i64 %48, %spec.select.i
  br i1 %exitcond.not.i, label %._crit_edge.i, label %.lr.ph78.i, !llvm.loop !82

._crit_edge.i:                                    ; preds = %47, %.preheader.i
  %.156.lcssa.i = phi i64 [ %.055.lcssa.i, %.preheader.i ], [ %spec.select.i, %47 ]
  %.149.lcssa.i = phi ptr [ %.048.lcssa.i, %.preheader.i ], [ %.250.i, %47 ]
  %.046.lcssa.i = phi i64 [ %28, %.preheader.i ], [ %.147.i, %47 ]
  %49 = sub i64 %spec.select68.i, %.156.lcssa.i
  %50 = add i64 %49, -1
  %51 = icmp sgt i64 %50, -1
  br i1 %51, label %.lr.ph86.i, label %._crit_edge87.i

.lr.ph86.i:                                       ; preds = %._crit_edge.i, %82
  %52 = phi i64 [ %83, %82 ], [ %50, %._crit_edge.i ]
  %.284.i = phi i64 [ %.3.i, %82 ], [ %.046.lcssa.i, %._crit_edge.i ]
  %.35183.i = phi ptr [ %.4.i, %82 ], [ %.149.lcssa.i, %._crit_edge.i ]
  %.05482.i = phi i64 [ %52, %82 ], [ %49, %._crit_edge.i ]
  %53 = getelementptr inbounds nuw i8, ptr %.35183.i, i64 8
  %54 = getelementptr [64 x ptr], ptr %53, i64 0, i64 %.284.i
  %55 = load ptr, ptr %54, align 8, !tbaa !21
  %56 = load i32, ptr %55, align 8, !tbaa !20
  %57 = icmp slt i32 %56, 0
  br i1 %57, label %_Py_NewRef.exit.i, label %58

58:                                               ; preds = %.lr.ph86.i
  %59 = add nuw i32 %56, 1
  store i32 %59, ptr %55, align 8, !tbaa !20
  br label %_Py_NewRef.exit.i

_Py_NewRef.exit.i:                                ; preds = %58, %.lr.ph86.i
  %60 = call i32 @PyObject_RichCompareBool(ptr noundef nonnull %55, ptr noundef %11, i32 noundef 2) #9
  %61 = load i32, ptr %55, align 8, !tbaa !20
  %.not.i.i = icmp sgt i32 %61, -1
  br i1 %.not.i.i, label %62, label %Py_DECREF.exit.i

62:                                               ; preds = %_Py_NewRef.exit.i
  %63 = add nsw i32 %61, -1
  store i32 %63, ptr %55, align 8, !tbaa !20
  %64 = icmp eq i32 %63, 0
  br i1 %64, label %65, label %Py_DECREF.exit.i

65:                                               ; preds = %62
  call void @_Py_Dealloc(ptr noundef nonnull %55) #9
  br label %Py_DECREF.exit.i

Py_DECREF.exit.i:                                 ; preds = %65, %62, %_Py_NewRef.exit.i
  %66 = icmp sgt i32 %60, 0
  br i1 %66, label %67, label %70

67:                                               ; preds = %Py_DECREF.exit.i
  %68 = sub i64 %spec.select68.i, %.05482.i
  %69 = call ptr @PyLong_FromSsize_t(i64 noundef %68) #9
  br label %deque_index_impl.exit

70:                                               ; preds = %Py_DECREF.exit.i
  %71 = icmp slt i32 %60, 0
  br i1 %71, label %deque_index_impl.exit, label %72

72:                                               ; preds = %70
  %73 = load i64, ptr %29, align 8, !tbaa !53
  %.not.i = icmp eq i64 %30, %73
  br i1 %.not.i, label %76, label %74

74:                                               ; preds = %72
  %75 = load ptr, ptr @PyExc_RuntimeError, align 8, !tbaa !21
  call void @PyErr_SetString(ptr noundef %75, ptr noundef nonnull @.str.39) #9
  br label %deque_index_impl.exit

76:                                               ; preds = %72
  %77 = add i64 %.284.i, 1
  %78 = icmp eq i64 %77, 64
  br i1 %78, label %79, label %82

79:                                               ; preds = %76
  %80 = getelementptr inbounds nuw i8, ptr %.35183.i, i64 520
  %81 = load ptr, ptr %80, align 8, !tbaa !54
  br label %82

82:                                               ; preds = %79, %76
  %.4.i = phi ptr [ %81, %79 ], [ %.35183.i, %76 ]
  %.3.i = phi i64 [ 0, %79 ], [ %77, %76 ]
  %83 = add nsw i64 %52, -1
  %84 = icmp sgt i64 %52, 0
  br i1 %84, label %.lr.ph86.i, label %._crit_edge87.i, !llvm.loop !83

._crit_edge87.i:                                  ; preds = %82, %._crit_edge.i
  %85 = load ptr, ptr @PyExc_ValueError, align 8, !tbaa !21
  call void @PyErr_SetString(ptr noundef %85, ptr noundef nonnull @.str.40) #9
  br label %deque_index_impl.exit

deque_index_impl.exit:                            ; preds = %70, %._crit_edge87.i, %74, %67, %19, %13, %8
  %.0 = phi ptr [ null, %19 ], [ null, %13 ], [ null, %8 ], [ %69, %67 ], [ null, %74 ], [ null, %._crit_edge87.i ], [ null, %70 ]
  call void @llvm.lifetime.end.p0(i64 8, ptr nonnull %5) #9
  call void @llvm.lifetime.end.p0(i64 8, ptr nonnull %4) #9
  ret ptr %.0
}